; Function Attrs: mustprogress nofree norecurse nosync nounwind willreturn memory(argmem: write) uwtable
define range(i32 -173, 2) i32 @wolfSSL_SetHsDoneCb(ptr noundef writeonly captures(address_is_null) %0, ptr noundef %1, ptr noundef %2) local_unnamed_addr #5 {
  %4 = icmp eq ptr %0, null
  br i1 %4, label %8, label %5

5:                                                ; preds = %3
  %6 = getelementptr inbounds nuw i8, ptr %0, i64 200
  store ptr %1, ptr %6, align 8, !tbaa !141
  %7 = getelementptr inbounds nuw i8, ptr %0, i64 208
  store ptr %2, ptr %7, align 16, !tbaa !142
  br label %8

8:                                                ; preds = %3, %5
  %.0 = phi i32 [ 1, %5 ], [ -173, %3 ]
  ret i32 %.0
}